; Function Attrs: mustprogress uwtable
define internal noalias noundef nonnull ptr @_ZL23llama_sampler_xtc_clonePK13llama_sampler(ptr noundef readonly captures(none) %0) #0 personality ptr @__gxx_personality_v0 {
  %2 = getelementptr inbounds nuw i8, ptr %0, i64 8
  %3 = load ptr, ptr %2, align 8, !tbaa !9
  %4 = load float, ptr %3, align 8, !tbaa !76
  %5 = getelementptr inbounds nuw i8, ptr %3, i64 4
  %6 = load float, ptr %5, align 4, !tbaa !78
  %7 = getelementptr inbounds nuw i8, ptr %3, i64 8
  %8 = load i64, ptr %7, align 8, !tbaa !79
  %9 = getelementptr inbounds nuw i8, ptr %3, i64 16
  %10 = load i32, ptr %9, align 8, !tbaa !80
  %11 = tail call fastcc noundef i32 @_ZL12get_rng_seedj(i32 noundef %10)
  %12 = tail call noalias noundef nonnull dereferenceable(5024) ptr @_Znwm(i64 noundef 5024) #30
  store float %4, ptr %12, align 16, !tbaa !76
  %13 = getelementptr inbounds nuw i8, ptr %12, i64 4
  store float %6, ptr %13, align 4, !tbaa !78
  %14 = getelementptr inbounds nuw i8, ptr %12, i64 8
  store i64 %8, ptr %14, align 8, !tbaa !79
  %15 = getelementptr inbounds nuw i8, ptr %12, i64 16
  store i32 %10, ptr %15, align 16, !tbaa !80
  %16 = getelementptr inbounds nuw i8, ptr %12, i64 20
  store i32 %11, ptr %16, align 4, !tbaa !81
  %17 = getelementptr inbounds nuw i8, ptr %12, i64 24
  %18 = zext i32 %11 to i64
  store i64 %18, ptr %17, align 8, !tbaa !46
  br label %19

19:                                               ; preds = %19, %1
  %20 = phi i64 [ %18, %1 ], [ %25, %19 ]
  %.011.i.i.i = phi i64 [ 1, %1 ], [ %27, %19 ]
  %21 = lshr i64 %20, 30
  %22 = xor i64 %21, %20
  %23 = mul nuw nsw i64 %22, 1812433253
  %24 = add nuw i64 %23, %.011.i.i.i
  %25 = and i64 %24, 4294967295
  %26 = getelementptr inbounds nuw [624 x i64], ptr %17, i64 0, i64 %.011.i.i.i
  store i64 %25, ptr %26, align 8, !tbaa !46
  %27 = add nuw nsw i64 %.011.i.i.i, 1
  %exitcond.not.i.i.i = icmp eq i64 %27, 624
  br i1 %exitcond.not.i.i.i, label %llama_sampler_init_xtc.exit, label %19, !llvm.loop !47

llama_sampler_init_xtc.exit:                      ; preds = %19
  %28 = getelementptr inbounds nuw i8, ptr %12, i64 5016
  store i64 624, ptr %28, align 8, !tbaa !48
  %29 = tail call noalias noundef nonnull dereferenceable(16) ptr @_Znwm(i64 noundef 16) #30
  store ptr @_ZL19llama_sampler_xtc_i, ptr %29, align 16, !tbaa !3
  %30 = getelementptr inbounds nuw i8, ptr %29, i64 8
  store ptr %12, ptr %30, align 8, !tbaa !9
  %31 = getelementptr inbounds nuw i8, ptr %3, i64 24
  tail call void @llvm.memcpy.p0.p0.i64(ptr noundef nonnull align 8 dereferenceable(5000) %17, ptr noundef nonnull align 8 dereferenceable(5000) %31, i64 5000, i1 false), !tbaa.struct !211
  ret ptr %29
}